; Function Attrs: mustprogress nofree norecurse nosync nounwind willreturn memory(read, inaccessiblemem: none) uwtable
define dso_local noundef i32 @_Z20find_variable_in_setRKSt6vectorIP8VariableSaIS1_EEPKS0_(ptr noundef nonnull readonly align 8 captures(none) dereferenceable(24) %0, ptr noundef readonly captures(address) %1) local_unnamed_addr #9 {
  %3 = getelementptr inbounds nuw i8, ptr %0, i64 8
  %4 = load ptr, ptr %3, align 8, !tbaa !83
  %5 = load ptr, ptr %0, align 8, !tbaa !84
  %.not = icmp eq ptr %4, %5
  br i1 %.not, label %.loopexit, label %.lr.ph

.lr.ph:                                           ; preds = %2
  %6 = ptrtoint ptr %4 to i64
  %7 = ptrtoint ptr %5 to i64
  %8 = sub i64 %6, %7
  %9 = ashr exact i64 %8, 3
  %10 = getelementptr inbounds nuw i8, ptr %1, i64 64
  %umax = tail call i64 @llvm.umax.i64(i64 %9, i64 1)
  br label %11

11:                                               ; preds = %.lr.ph, %29
  %.010 = phi i64 [ 0, %.lr.ph ], [ %30, %29 ]
  %12 = getelementptr inbounds nuw ptr, ptr %5, i64 %.010
  %13 = load ptr, ptr %12, align 8, !tbaa !37
  %14 = getelementptr inbounds nuw i8, ptr %13, i64 64
  %15 = load ptr, ptr %14, align 8, !tbaa !39
  %.not.i = icmp eq ptr %15, null
  br i1 %.not.i, label %26, label %16

16:                                               ; preds = %11
  %17 = load ptr, ptr %10, align 8, !tbaa !39
  %.not9.i = icmp eq ptr %17, null
  br i1 %.not9.i, label %26, label %18

18:                                               ; preds = %16
  %19 = load i32, ptr %15, align 8, !tbaa !57
  %20 = and i32 %19, -2
  %spec.select.i.i = icmp eq i32 %20, 2
  br i1 %spec.select.i.i, label %21, label %26

21:                                               ; preds = %18
  %22 = icmp eq ptr %13, %1
  br i1 %22, label %_ZNK8Variable5matchEPKS_.exit.thread, label %.lr.ph.i.i

.lr.ph.i.i:                                       ; preds = %21, %.lr.ph.i.i
  %.0611.i.i = phi ptr [ %24, %.lr.ph.i.i ], [ %1, %21 ]
  %23 = getelementptr inbounds nuw i8, ptr %.0611.i.i, i64 88
  %24 = load ptr, ptr %23, align 8, !tbaa !80
  %.not.i.i = icmp ne ptr %24, null
  %25 = icmp ne ptr %24, %13
  %or.cond.not.i.i = and i1 %25, %.not.i.i
  br i1 %or.cond.not.i.i, label %.lr.ph.i.i, label %_ZNK8Variable5matchEPKS_.exit, !llvm.loop !81

26:                                               ; preds = %18, %16, %11
  %27 = icmp eq ptr %13, %1
  br i1 %27, label %_ZNK8Variable5matchEPKS_.exit.thread, label %29

_ZNK8Variable5matchEPKS_.exit:                    ; preds = %.lr.ph.i.i
  br i1 %.not.i.i, label %_ZNK8Variable5matchEPKS_.exit.thread, label %29

_ZNK8Variable5matchEPKS_.exit.thread:             ; preds = %21, %26, %_ZNK8Variable5matchEPKS_.exit
  %28 = trunc i64 %.010 to i32
  br label %.loopexit

29:                                               ; preds = %26, %_ZNK8Variable5matchEPKS_.exit
  %30 = add nuw i64 %.010, 1
  %exitcond.not = icmp eq i64 %30, %umax
  br i1 %exitcond.not, label %.loopexit, label %11, !llvm.loop !85

.loopexit:                                        ; preds = %29, %2, %_ZNK8Variable5matchEPKS_.exit.thread
  %.07 = phi i32 [ %28, %_ZNK8Variable5matchEPKS_.exit.thread ], [ -1, %2 ], [ -1, %29 ]
  ret i32 %.07
}